#include <math.h>
#include <stdio.h>
#include <stdlib.h>
#include <string.h>


int main()
{
	int i,j,k,n,f[1000],o[1000],s,flag,sign;
	scanf("%d%d",&n,&s);
	for(i=0;i<n;i++)
	{
		scanf("%d",&f[i]);
		o[i]=s-f[i];
	}
	flag=0;
	sign=0;
	for(j=0;j<n;j++)
	{
		for(k=n-1;k>j;k--)
		{
			if(o[j]==f[k])
			{
				printf("yes");
				flag=1;
				sign=1;
				break;
			}
		}
		if(sign==1)
		{
			break;
		}
	}
	if(flag==0)
	{
		printf("no");
	}
	return 0;
}

